; Function Attrs: mustprogress nounwind uwtable
define hidden void @_ZN19OpenColorIO_v2_4dev11Lut1DOpData13Lut3by1DArrayD2Ev(ptr nocapture noundef nonnull align 8 dereferenceable(48) %this) unnamed_addr #4 align 2 personality ptr @__gxx_personality_v0 {
entry:
  store ptr getelementptr inbounds ({ [11 x ptr] }, ptr @_ZTVN19OpenColorIO_v2_4dev6ArrayTIfEE, i64 0, i32 0, i64 2), ptr %this, align 8
  %m_data.i = getelementptr inbounds i8, ptr %this, i64 24
  %0 = load ptr, ptr %m_data.i, align 8
  %tobool.not.i.i.i.i = icmp eq ptr %0, null
  br i1 %tobool.not.i.i.i.i, label %_ZN19OpenColorIO_v2_4dev6ArrayTIfED2Ev.exit, label %if.then.i.i.i.i

if.then.i.i.i.i:                                  ; preds = %entry
  tail call void @_ZdlPv(ptr noundef nonnull %0) #27
  br label %_ZN19OpenColorIO_v2_4dev6ArrayTIfED2Ev.exit

_ZN19OpenColorIO_v2_4dev6ArrayTIfED2Ev.exit:      ; preds = %entry, %if.then.i.i.i.i
  ret void
}